target datalayout = "e-m:e-p270:32:32-p271:32:32-p272:64:64-i64:64-i128:128-f80:128-n8:16:32:64-S128"
target triple = "x86_64-pc-linux-gnu"

@s_gamepadInstanceIDs = internal global ptr null, align 8

; Function Attrs: nounwind uwtable
define hidden zeroext i1 @SDL_IsGamepad_REAL(i32 noundef %0) #0 {
  %2 = alloca i32, align 4
  %3 = alloca i8, align 1
  %4 = alloca ptr, align 8
  store i32 %0, ptr %2, align 4
  call void @llvm.lifetime.start.p0(i64 1, ptr %3) #8
  call void @SDL_LockJoysticks_REAL()
  call void @llvm.lifetime.start.p0(i64 8, ptr %4) #8
  %5 = load ptr, ptr @s_gamepadInstanceIDs, align 8
  %6 = load i32, ptr %2, align 4
  %7 = zext i32 %6 to i64
  %8 = inttoptr i64 %7 to ptr
  %9 = call zeroext i1 @SDL_FindInHashTable(ptr noundef %5, ptr noundef %8, ptr noundef %4)
  br i1 %9, label %10, label %15

10:                                               ; preds = %1
  %11 = load ptr, ptr %4, align 8
  %12 = ptrtoint ptr %11 to i64
  %13 = icmp ne i64 %12, 0
  %14 = zext i1 %13 to i8
  store i8 %14, ptr %3, align 1
  br label %36

15:                                               ; preds = %1
  %16 = load i32, ptr %2, align 4
  %17 = call ptr @SDL_PrivateGetGamepadMapping(i32 noundef %16, i1 noundef zeroext true)
  %18 = icmp ne ptr %17, null
  br i1 %18, label %19, label %20

19:                                               ; preds = %15
  store i8 1, ptr %3, align 1
  br label %21

20:                                               ; preds = %15
  store i8 0, ptr %3, align 1
  br label %21

21:                                               ; preds = %20, %19
  %22 = load ptr, ptr @s_gamepadInstanceIDs, align 8
  %23 = icmp ne ptr %22, null
  br i1 %23, label %26, label %24

24:                                               ; preds = %21
  %25 = call ptr @SDL_CreateHashTable(i32 noundef 0, i1 noundef zeroext false, ptr noundef @SDL_HashID, ptr noundef @SDL_KeyMatchID, ptr noundef null, ptr noundef null)
  store ptr %25, ptr @s_gamepadInstanceIDs, align 8
  br label %26

26:                                               ; preds = %24, %21
  %27 = load ptr, ptr @s_gamepadInstanceIDs, align 8
  %28 = load i32, ptr %2, align 4
  %29 = zext i32 %28 to i64
  %30 = inttoptr i64 %29 to ptr
  %31 = load i8, ptr %3, align 1, !range !3, !noundef !4
  %32 = trunc i8 %31 to i1
  %33 = zext i1 %32 to i64
  %34 = inttoptr i64 %33 to ptr
  %35 = call zeroext i1 @SDL_InsertIntoHashTable(ptr noundef %27, ptr noundef %30, ptr noundef %34, i1 noundef zeroext true)
  br label %36

36:                                               ; preds = %26, %10
  call void @llvm.lifetime.end.p0(i64 8, ptr %4) #8
  call void @SDL_UnlockJoysticks_REAL()
  %37 = load i8, ptr %3, align 1, !range !3, !noundef !4
  %38 = trunc i8 %37 to i1
  call void @llvm.lifetime.end.p0(i64 1, ptr %3) #8
  ret i1 %38
}