; Function Attrs: nounwind uwtable
define hidden zeroext i1 @SDL_IsGamepad_REAL(i32 noundef %0) local_unnamed_addr #0 {
  %2 = alloca ptr, align 8
  tail call void @SDL_LockJoysticks_REAL() #10
  call void @llvm.lifetime.start.p0(i64 8, ptr nonnull %2) #10
  %3 = load ptr, ptr @s_gamepadInstanceIDs, align 8
  %4 = zext i32 %0 to i64
  %5 = inttoptr i64 %4 to ptr
  %6 = call zeroext i1 @SDL_FindInHashTable(ptr noundef %3, ptr noundef %5, ptr noundef nonnull %2) #10
  br i1 %6, label %7, label %10

7:                                                ; preds = %1
  %8 = load ptr, ptr %2, align 8
  %9 = icmp ne ptr %8, null
  br label %20

10:                                               ; preds = %1
  %11 = call fastcc ptr @SDL_PrivateGetGamepadMapping(i32 noundef %0, i1 noundef zeroext true)
  %.not = icmp ne ptr %11, null
  %12 = load ptr, ptr @s_gamepadInstanceIDs, align 8
  %.not5 = icmp eq ptr %12, null
  br i1 %.not5, label %13, label %15

13:                                               ; preds = %10
  %14 = call ptr @SDL_CreateHashTable(i32 noundef 0, i1 noundef zeroext false, ptr noundef nonnull @SDL_HashID, ptr noundef nonnull @SDL_KeyMatchID, ptr noundef null, ptr noundef null) #10
  store ptr %14, ptr @s_gamepadInstanceIDs, align 8
  br label %15

15:                                               ; preds = %13, %10
  %16 = phi ptr [ %14, %13 ], [ %12, %10 ]
  %17 = zext i1 %.not to i64
  %18 = inttoptr i64 %17 to ptr
  %19 = call zeroext i1 @SDL_InsertIntoHashTable(ptr noundef %16, ptr noundef %5, ptr noundef %18, i1 noundef zeroext true) #10
  br label %20

20:                                               ; preds = %15, %7
  %.0 = phi i1 [ %9, %7 ], [ %.not, %15 ]
  call void @llvm.lifetime.end.p0(i64 8, ptr nonnull %2) #10
  call void @SDL_UnlockJoysticks_REAL() #10
  ret i1 %.0
}